target datalayout = "e-m:e-p270:32:32-p271:32:32-p272:64:64-i64:64-i128:128-f80:128-n8:16:32:64-S128"
target triple = "x86_64-unknown-linux-gnu"

%struct.QTailQLink = type { ptr, ptr }
%struct.AHCIState = type { ptr, ptr, %struct.AHCIControlRegs, %struct.MemoryRegion, %struct.MemoryRegion, i32, i32, i32, ptr, ptr }
%struct.AHCIControlRegs = type { i32, i32, i32, i32, i32 }
%struct.MemoryRegion = type { %struct.Object, i8, i8, i8, i8, i8, i8, i8, i8, i8, i8, ptr, ptr, ptr, ptr, ptr, ptr, i32, i128, i64, ptr, i64, i8, i8, i8, i8, i8, ptr, i64, i32, %union.anon, %union.anon.0, %union.anon.1, ptr, i32, ptr, ptr, i8 }
%struct.Object = type { ptr, ptr, ptr, i32, ptr }
%union.anon = type { %struct.QTailQLink }
%union.anon.0 = type { %struct.QTailQLink }
%union.anon.1 = type { %struct.QTailQLink }
%struct.AHCIDevice = type { %struct.IDEDMA, %struct.IDEBus, i32, i32, i32, %struct.AHCIPortRegs, ptr, ptr, ptr, ptr, i8, i32, i8, ptr, [32 x %struct.NCQTransferState], %struct.MemReentrancyGuard }
%struct.IDEDMA = type { ptr, %struct.QEMUIOVector, ptr }
%struct.QEMUIOVector = type { ptr, i32, %union.anon.3 }
%union.anon.3 = type { %struct.anon.4 }
%struct.anon.4 = type { i32, %struct.iovec }
%struct.iovec = type { ptr, i64 }
%struct.IDEBus = type { %struct.BusState, ptr, ptr, [2 x %struct.IDEState], ptr, i32, i32, ptr, i8, i8, ptr, i32, i8, i64, i32, %struct.PortioList, %struct.PortioList, ptr }
%struct.BusState = type { %struct.Object, ptr, ptr, ptr, i32, i8, i8, i32, %union.BusChildHead, %struct.BusStateEntry, %struct.ResettableState }
%union.BusChildHead = type { %struct.QTailQLink }
%struct.BusStateEntry = type { ptr, ptr }
%struct.ResettableState = type { i32, i8, i8 }
%struct.IDEState = type { ptr, i8, i32, i32, i32, i32, i32, i32, i32, i64, i32, i32, [512 x i8], i32, [21 x i8], [41 x i8], i64, i8, i8, i32, i8, i8, i8, i8, i8, i8, i8, i8, i8, i8, i8, i8, i8, ptr, [9 x i8], %struct.unreported_events, i8, i8, i8, i8, i8, i32, i32, i32, i32, i32, i32, %struct.BlockAcctCookie, ptr, %struct.QEMUIOVector, %struct.anon.6, i64, i32, %struct.QEMUSGList, i32, ptr, ptr, ptr, ptr, i32, i32, i32, i8, ptr, i32, i8, i32, ptr, i32, i32, i8, i8, i32, i8, ptr, i32 }
%struct.unreported_events = type { i8, i8 }
%struct.BlockAcctCookie = type { i64, i64, i32 }
%struct.anon.6 = type { ptr }
%struct.QEMUSGList = type { ptr, i32, i32, i64, ptr, ptr }
%struct.PortioList = type { ptr, ptr, ptr, i32, ptr, ptr, ptr, i8 }
%struct.AHCIPortRegs = type { i32, i32, i32, i32, i32, i32, i32, i32, i32, i32, i32, i32, i32, i32, i32, i32 }
%struct.NCQTransferState = type { ptr, ptr, ptr, %struct.QEMUSGList, %struct.BlockAcctCookie, i32, i64, i8, i8, i8, i8, i8 }
%struct.MemReentrancyGuard = type { i8 }
%struct.timeval = type { i64, i64 }

@trace_events_enabled_count = external global i32, align 4
@message_with_timestamp = external global i8, align 1
@qemu_loglevel = external global i32, align 4
@_TRACE_AHCI_RESET_PORT_DSTATE = external global i16, align 2
@.str.191 = private unnamed_addr constant [55 x i8] c"%d@%zu.%06zu:ahci_reset_port ahci(%p)[%d]: reset port\0A\00", align 1
@.str.192 = private unnamed_addr constant [42 x i8] c"ahci_reset_port ahci(%p)[%d]: reset port\0A\00", align 1

; Function Attrs: nounwind sspstrong uwtable
define internal zeroext i1 @qemu_loglevel_mask(i32 noundef %mask) #0 {
entry:
  %mask.addr = alloca i32, align 4
  store i32 %mask, ptr %mask.addr, align 4
  %0 = load i32, ptr @qemu_loglevel, align 4
  %1 = load i32, ptr %mask.addr, align 4
  %and = and i32 %0, %1
  %cmp = icmp ne i32 %and, 0
  ret i1 %cmp
}

; Function Attrs: nounwind sspstrong uwtable
define internal void @_nocheck__trace_ahci_reset_port(ptr noundef %s, i32 noundef %port) #0 {
entry:
  %s.addr = alloca ptr, align 8
  %port.addr = alloca i32, align 4
  %_now = alloca %struct.timeval, align 8
  store ptr %s, ptr %s.addr, align 8
  store i32 %port, ptr %port.addr, align 4
  %0 = load i32, ptr @trace_events_enabled_count, align 4
  %tobool = icmp ne i32 %0, 0
  %lnot = xor i1 %tobool, true
  %lnot1 = xor i1 %lnot, true
  %lnot.ext = zext i1 %lnot1 to i32
  %conv = sext i32 %lnot.ext to i64
  %tobool2 = icmp ne i64 %conv, 0
  br i1 %tobool2, label %land.lhs.true, label %if.end11

land.lhs.true:                                    ; preds = %entry
  %1 = load i16, ptr @_TRACE_AHCI_RESET_PORT_DSTATE, align 2
  %conv3 = zext i16 %1 to i32
  %tobool4 = icmp ne i32 %conv3, 0
  br i1 %tobool4, label %land.lhs.true5, label %if.end11

land.lhs.true5:                                   ; preds = %land.lhs.true
  %call = call zeroext i1 @qemu_loglevel_mask(i32 noundef 32768)
  br i1 %call, label %if.then, label %if.end11

if.then:                                          ; preds = %land.lhs.true5
  %2 = load i8, ptr @message_with_timestamp, align 1
  %tobool7 = trunc i8 %2 to i1
  br i1 %tobool7, label %if.then8, label %if.else

if.then8:                                         ; preds = %if.then
  %call9 = call i32 @gettimeofday(ptr noundef %_now, ptr noundef null) #10
  %call10 = call i32 @qemu_get_thread_id()
  %tv_sec = getelementptr inbounds %struct.timeval, ptr %_now, i32 0, i32 0
  %3 = load i64, ptr %tv_sec, align 8
  %tv_usec = getelementptr inbounds %struct.timeval, ptr %_now, i32 0, i32 1
  %4 = load i64, ptr %tv_usec, align 8
  %5 = load ptr, ptr %s.addr, align 8
  %6 = load i32, ptr %port.addr, align 4
  call void (ptr, ...) @qemu_log(ptr noundef @.str.191, i32 noundef %call10, i64 noundef %3, i64 noundef %4, ptr noundef %5, i32 noundef %6)
  br label %if.end

if.else:                                          ; preds = %if.then
  %7 = load ptr, ptr %s.addr, align 8
  %8 = load i32, ptr %port.addr, align 4
  call void (ptr, ...) @qemu_log(ptr noundef @.str.192, ptr noundef %7, i32 noundef %8)
  br label %if.end

if.end:                                           ; preds = %if.else, %if.then8
  br label %if.end11

if.end11:                                         ; preds = %if.end, %land.lhs.true5, %land.lhs.true, %entry
  ret void
}

; Function Attrs: nounwind sspstrong uwtable
define internal void @trace_ahci_reset_port(ptr noundef %s, i32 noundef %port) #0 {
entry:
  %s.addr = alloca ptr, align 8
  %port.addr = alloca i32, align 4
  store ptr %s, ptr %s.addr, align 8
  store i32 %port, ptr %port.addr, align 4
  %0 = load ptr, ptr %s.addr, align 8
  %1 = load i32, ptr %port.addr, align 4
  call void @_nocheck__trace_ahci_reset_port(ptr noundef %0, i32 noundef %1)
  ret void
}

; Function Attrs: nounwind sspstrong uwtable
define internal void @ahci_reset_port(ptr noundef %s, i32 noundef %port) #0 {
entry:
  %s.addr = alloca ptr, align 8
  %port.addr = alloca i32, align 4
  %d = alloca ptr, align 8
  %pr = alloca ptr, align 8
  %ide_state = alloca ptr, align 8
  %i = alloca i32, align 4
  %ncq_tfs = alloca ptr, align 8
  store ptr %s, ptr %s.addr, align 8
  store i32 %port, ptr %port.addr, align 4
  %0 = load ptr, ptr %s.addr, align 8
  %dev = getelementptr inbounds %struct.AHCIState, ptr %0, i32 0, i32 1
  %1 = load ptr, ptr %dev, align 8
  %2 = load i32, ptr %port.addr, align 4
  %idxprom = sext i32 %2 to i64
  %arrayidx = getelementptr %struct.AHCIDevice, ptr %1, i64 %idxprom
  store ptr %arrayidx, ptr %d, align 8
  %3 = load ptr, ptr %d, align 8
  %port_regs = getelementptr inbounds %struct.AHCIDevice, ptr %3, i32 0, i32 5
  store ptr %port_regs, ptr %pr, align 8
  %4 = load ptr, ptr %d, align 8
  %port1 = getelementptr inbounds %struct.AHCIDevice, ptr %4, i32 0, i32 1
  %ifs = getelementptr inbounds %struct.IDEBus, ptr %port1, i32 0, i32 3
  %arrayidx2 = getelementptr [2 x %struct.IDEState], ptr %ifs, i64 0, i64 0
  store ptr %arrayidx2, ptr %ide_state, align 8
  %5 = load ptr, ptr %s.addr, align 8
  %6 = load i32, ptr %port.addr, align 4
  call void @trace_ahci_reset_port(ptr noundef %5, i32 noundef %6)
  %7 = load ptr, ptr %d, align 8
  %port3 = getelementptr inbounds %struct.AHCIDevice, ptr %7, i32 0, i32 1
  call void @ide_bus_reset(ptr noundef %port3)
  %8 = load ptr, ptr %ide_state, align 8
  %ncq_queues = getelementptr inbounds %struct.IDEState, ptr %8, i32 0, i32 75
  store i32 32, ptr %ncq_queues, align 8
  %9 = load ptr, ptr %pr, align 8
  %scr_stat = getelementptr inbounds %struct.AHCIPortRegs, ptr %9, i32 0, i32 10
  store i32 0, ptr %scr_stat, align 4
  %10 = load ptr, ptr %pr, align 8
  %scr_err = getelementptr inbounds %struct.AHCIPortRegs, ptr %10, i32 0, i32 12
  store i32 0, ptr %scr_err, align 4
  %11 = load ptr, ptr %pr, align 8
  %scr_act = getelementptr inbounds %struct.AHCIPortRegs, ptr %11, i32 0, i32 13
  store i32 0, ptr %scr_act, align 4
  %12 = load ptr, ptr %pr, align 8
  %tfdata = getelementptr inbounds %struct.AHCIPortRegs, ptr %12, i32 0, i32 8
  store i32 127, ptr %tfdata, align 4
  %13 = load ptr, ptr %pr, align 8
  %sig = getelementptr inbounds %struct.AHCIPortRegs, ptr %13, i32 0, i32 9
  store i32 -1, ptr %sig, align 4
  %14 = load ptr, ptr %pr, align 8
  %cmd_issue = getelementptr inbounds %struct.AHCIPortRegs, ptr %14, i32 0, i32 14
  store i32 0, ptr %cmd_issue, align 4
  %15 = load ptr, ptr %d, align 8
  %busy_slot = getelementptr inbounds %struct.AHCIDevice, ptr %15, i32 0, i32 11
  store i32 -1, ptr %busy_slot, align 4
  %16 = load ptr, ptr %d, align 8
  %init_d2h_sent = getelementptr inbounds %struct.AHCIDevice, ptr %16, i32 0, i32 12
  store i8 0, ptr %init_d2h_sent, align 8
  %17 = load ptr, ptr %s.addr, align 8
  %dev4 = getelementptr inbounds %struct.AHCIState, ptr %17, i32 0, i32 1
  %18 = load ptr, ptr %dev4, align 8
  %19 = load i32, ptr %port.addr, align 4
  %idxprom5 = sext i32 %19 to i64
  %arrayidx6 = getelementptr %struct.AHCIDevice, ptr %18, i64 %idxprom5
  %port7 = getelementptr inbounds %struct.AHCIDevice, ptr %arrayidx6, i32 0, i32 1
  %ifs8 = getelementptr inbounds %struct.IDEBus, ptr %port7, i32 0, i32 3
  %arrayidx9 = getelementptr [2 x %struct.IDEState], ptr %ifs8, i64 0, i64 0
  store ptr %arrayidx9, ptr %ide_state, align 8
  %20 = load ptr, ptr %ide_state, align 8
  %blk = getelementptr inbounds %struct.IDEState, ptr %20, i32 0, i32 33
  %21 = load ptr, ptr %blk, align 8
  %tobool = icmp ne ptr %21, null
  br i1 %tobool, label %if.end, label %if.then

if.then:                                          ; preds = %entry
  br label %return

if.end:                                           ; preds = %entry
  store i32 0, ptr %i, align 4
  br label %for.cond

for.cond:                                         ; preds = %for.inc, %if.end
  %22 = load i32, ptr %i, align 4
  %cmp = icmp slt i32 %22, 32
  br i1 %cmp, label %for.body, label %for.end

for.body:                                         ; preds = %for.cond
  %23 = load ptr, ptr %s.addr, align 8
  %dev10 = getelementptr inbounds %struct.AHCIState, ptr %23, i32 0, i32 1
  %24 = load ptr, ptr %dev10, align 8
  %25 = load i32, ptr %port.addr, align 4
  %idxprom11 = sext i32 %25 to i64
  %arrayidx12 = getelementptr %struct.AHCIDevice, ptr %24, i64 %idxprom11
  %ncq_tfs13 = getelementptr inbounds %struct.AHCIDevice, ptr %arrayidx12, i32 0, i32 14
  %26 = load i32, ptr %i, align 4
  %idxprom14 = sext i32 %26 to i64
  %arrayidx15 = getelementptr [32 x %struct.NCQTransferState], ptr %ncq_tfs13, i64 0, i64 %idxprom14
  store ptr %arrayidx15, ptr %ncq_tfs, align 8
  %27 = load ptr, ptr %ncq_tfs, align 8
  %halt = getelementptr inbounds %struct.NCQTransferState, ptr %27, i32 0, i32 11
  store i8 0, ptr %halt, align 4
  %28 = load ptr, ptr %ncq_tfs, align 8
  %used = getelementptr inbounds %struct.NCQTransferState, ptr %28, i32 0, i32 10
  %29 = load i8, ptr %used, align 1
  %tobool16 = trunc i8 %29 to i1
  br i1 %tobool16, label %if.end18, label %if.then17

if.then17:                                        ; preds = %for.body
  br label %for.inc

if.end18:                                         ; preds = %for.body
  %30 = load ptr, ptr %ncq_tfs, align 8
  %aiocb = getelementptr inbounds %struct.NCQTransferState, ptr %30, i32 0, i32 1
  %31 = load ptr, ptr %aiocb, align 8
  %tobool19 = icmp ne ptr %31, null
  br i1 %tobool19, label %if.then20, label %if.end23

if.then20:                                        ; preds = %if.end18
  %32 = load ptr, ptr %ncq_tfs, align 8
  %aiocb21 = getelementptr inbounds %struct.NCQTransferState, ptr %32, i32 0, i32 1
  %33 = load ptr, ptr %aiocb21, align 8
  call void @blk_aio_cancel(ptr noundef %33)
  %34 = load ptr, ptr %ncq_tfs, align 8
  %aiocb22 = getelementptr inbounds %struct.NCQTransferState, ptr %34, i32 0, i32 1
  store ptr null, ptr %aiocb22, align 8
  br label %if.end23

if.end23:                                         ; preds = %if.then20, %if.end18
  %35 = load ptr, ptr %ncq_tfs, align 8
  %used24 = getelementptr inbounds %struct.NCQTransferState, ptr %35, i32 0, i32 10
  %36 = load i8, ptr %used24, align 1
  %tobool25 = trunc i8 %36 to i1
  br i1 %tobool25, label %if.end27, label %if.then26

if.then26:                                        ; preds = %if.end23
  br label %for.inc

if.end27:                                         ; preds = %if.end23
  %37 = load ptr, ptr %ncq_tfs, align 8
  %sglist = getelementptr inbounds %struct.NCQTransferState, ptr %37, i32 0, i32 3
  call void @qemu_sglist_destroy(ptr noundef %sglist)
  %38 = load ptr, ptr %ncq_tfs, align 8
  %used28 = getelementptr inbounds %struct.NCQTransferState, ptr %38, i32 0, i32 10
  store i8 0, ptr %used28, align 1
  br label %for.inc

for.inc:                                          ; preds = %if.end27, %if.then26, %if.then17
  %39 = load i32, ptr %i, align 4
  %inc = add i32 %39, 1
  store i32 %inc, ptr %i, align 4
  br label %for.cond, !llvm.loop !11

for.end:                                          ; preds = %for.cond
  %40 = load ptr, ptr %s.addr, align 8
  %dev29 = getelementptr inbounds %struct.AHCIState, ptr %40, i32 0, i32 1
  %41 = load ptr, ptr %dev29, align 8
  %42 = load i32, ptr %port.addr, align 4
  %idxprom30 = sext i32 %42 to i64
  %arrayidx31 = getelementptr %struct.AHCIDevice, ptr %41, i64 %idxprom30
  %port_state = getelementptr inbounds %struct.AHCIDevice, ptr %arrayidx31, i32 0, i32 3
  store i32 0, ptr %port_state, align 4
  %43 = load ptr, ptr %ide_state, align 8
  %drive_kind = getelementptr inbounds %struct.IDEState, ptr %43, i32 0, i32 2
  %44 = load i32, ptr %drive_kind, align 4
  %cmp32 = icmp eq i32 %44, 1
  br i1 %cmp32, label %if.then33, label %if.else

if.then33:                                        ; preds = %for.end
  %45 = load ptr, ptr %d, align 8
  call void @ahci_set_signature(ptr noundef %45, i32 noundef -351010559)
  %46 = load ptr, ptr %ide_state, align 8
  %status = getelementptr inbounds %struct.IDEState, ptr %46, i32 0, i32 29
  store i8 112, ptr %status, align 1
  br label %if.end35

if.else:                                          ; preds = %for.end
  %47 = load ptr, ptr %d, align 8
  call void @ahci_set_signature(ptr noundef %47, i32 noundef 257)
  %48 = load ptr, ptr %ide_state, align 8
  %status34 = getelementptr inbounds %struct.IDEState, ptr %48, i32 0, i32 29
  store i8 48, ptr %status34, align 1
  br label %if.end35

if.end35:                                         ; preds = %if.else, %if.then33
  %49 = load ptr, ptr %ide_state, align 8
  %error = getelementptr inbounds %struct.IDEState, ptr %49, i32 0, i32 18
  store i8 1, ptr %error, align 1
  %50 = load ptr, ptr %d, align 8
  call void @ahci_init_d2h(ptr noundef %50)
  br label %return

return:                                           ; preds = %if.end35, %if.then
  ret void
}