; Function Attrs: nounwind sspstrong uwtable
define internal fastcc void @ahci_reset_port(ptr noundef %s, i32 noundef %port) unnamed_addr #0 {
entry:
  %_now.i.i = alloca %struct.timeval, align 8
  %dev = getelementptr inbounds nuw i8, ptr %s, i64 8
  %0 = load ptr, ptr %dev, align 8
  %idxprom = sext i32 %port to i64
  %arrayidx = getelementptr %struct.AHCIDevice, ptr %0, i64 %idxprom
  %port1 = getelementptr inbounds nuw i8, ptr %arrayidx, i64 56
  call void @llvm.lifetime.start.p0(i64 16, ptr nonnull %_now.i.i)
  %1 = load i32, ptr @trace_events_enabled_count, align 4
  %tobool.i.i = icmp ne i32 %1, 0
  %2 = load i16, ptr @_TRACE_AHCI_RESET_PORT_DSTATE, align 2
  %tobool4.i.i = icmp ne i16 %2, 0
  %or.cond.i.i = select i1 %tobool.i.i, i1 %tobool4.i.i, i1 false
  br i1 %or.cond.i.i, label %land.lhs.true5.i.i, label %trace_ahci_reset_port.exit

land.lhs.true5.i.i:                               ; preds = %entry
  %3 = load i32, ptr @qemu_loglevel, align 4
  %and.i.i.i = and i32 %3, 32768
  %cmp.i.not.i.i = icmp eq i32 %and.i.i.i, 0
  br i1 %cmp.i.not.i.i, label %trace_ahci_reset_port.exit, label %if.then.i.i

if.then.i.i:                                      ; preds = %land.lhs.true5.i.i
  %4 = load i8, ptr @message_with_timestamp, align 1
  %tobool7.i.i = trunc i8 %4 to i1
  br i1 %tobool7.i.i, label %if.then8.i.i, label %if.else.i.i

if.then8.i.i:                                     ; preds = %if.then.i.i
  %call9.i.i = call i32 @gettimeofday(ptr noundef nonnull %_now.i.i, ptr noundef null) #12
  %call10.i.i = tail call i32 @qemu_get_thread_id() #12
  %5 = load i64, ptr %_now.i.i, align 8
  %tv_usec.i.i = getelementptr inbounds nuw i8, ptr %_now.i.i, i64 8
  %6 = load i64, ptr %tv_usec.i.i, align 8
  tail call void (ptr, ...) @qemu_log(ptr noundef nonnull @.str.191, i32 noundef %call10.i.i, i64 noundef %5, i64 noundef %6, ptr noundef nonnull %s, i32 noundef %port) #12
  br label %trace_ahci_reset_port.exit

if.else.i.i:                                      ; preds = %if.then.i.i
  tail call void (ptr, ...) @qemu_log(ptr noundef nonnull @.str.192, ptr noundef nonnull %s, i32 noundef %port) #12
  br label %trace_ahci_reset_port.exit

trace_ahci_reset_port.exit:                       ; preds = %entry, %land.lhs.true5.i.i, %if.then8.i.i, %if.else.i.i
  call void @llvm.lifetime.end.p0(i64 16, ptr nonnull %_now.i.i)
  tail call void @ide_bus_reset(ptr noundef nonnull %port1) #12
  %ncq_queues = getelementptr inbounds nuw i8, ptr %arrayidx, i64 1168
  store i32 32, ptr %ncq_queues, align 8
  %scr_stat = getelementptr inbounds nuw i8, ptr %arrayidx, i64 2412
  store i32 0, ptr %scr_stat, align 4
  %scr_err = getelementptr inbounds nuw i8, ptr %arrayidx, i64 2420
  store i32 0, ptr %scr_err, align 4
  %scr_act = getelementptr inbounds nuw i8, ptr %arrayidx, i64 2424
  store i32 0, ptr %scr_act, align 4
  %tfdata = getelementptr inbounds nuw i8, ptr %arrayidx, i64 2404
  store i32 127, ptr %tfdata, align 4
  %sig = getelementptr inbounds nuw i8, ptr %arrayidx, i64 2408
  store i32 -1, ptr %sig, align 4
  %cmd_issue = getelementptr inbounds nuw i8, ptr %arrayidx, i64 2428
  store i32 0, ptr %cmd_issue, align 4
  %busy_slot = getelementptr inbounds nuw i8, ptr %arrayidx, i64 2476
  store i32 -1, ptr %busy_slot, align 4
  %init_d2h_sent = getelementptr inbounds nuw i8, ptr %arrayidx, i64 2480
  store i8 0, ptr %init_d2h_sent, align 8
  %7 = load ptr, ptr %dev, align 8
  %ifs8 = getelementptr %struct.AHCIDevice, ptr %7, i64 %idxprom, i32 1, i32 3
  %blk = getelementptr inbounds nuw i8, ptr %ifs8, i64 672
  %8 = load ptr, ptr %blk, align 8
  %tobool.not = icmp eq ptr %8, null
  br i1 %tobool.not, label %return, label %for.body

for.body:                                         ; preds = %trace_ahci_reset_port.exit, %for.inc
  %indvars.iv = phi i64 [ %indvars.iv.next, %for.inc ], [ 0, %trace_ahci_reset_port.exit ]
  %9 = load ptr, ptr %dev, align 8
  %arrayidx15 = getelementptr %struct.AHCIDevice, ptr %9, i64 %idxprom, i32 14, i64 %indvars.iv
  %halt = getelementptr inbounds nuw i8, ptr %arrayidx15, i64 108
  store i8 0, ptr %halt, align 4
  %used = getelementptr inbounds nuw i8, ptr %arrayidx15, i64 107
  %10 = load i8, ptr %used, align 1
  %tobool16 = trunc i8 %10 to i1
  br i1 %tobool16, label %if.end18, label %for.inc

if.end18:                                         ; preds = %for.body
  %aiocb = getelementptr inbounds nuw i8, ptr %arrayidx15, i64 8
  %11 = load ptr, ptr %aiocb, align 8
  %tobool19.not = icmp eq ptr %11, null
  br i1 %tobool19.not, label %if.end23, label %if.then20

if.then20:                                        ; preds = %if.end18
  tail call void @blk_aio_cancel(ptr noundef nonnull %11) #12
  store ptr null, ptr %aiocb, align 8
  %.pre = load i8, ptr %used, align 1
  br label %if.end23

if.end23:                                         ; preds = %if.then20, %if.end18
  %12 = phi i8 [ %.pre, %if.then20 ], [ %10, %if.end18 ]
  %tobool25 = trunc i8 %12 to i1
  br i1 %tobool25, label %if.end27, label %for.inc

if.end27:                                         ; preds = %if.end23
  %sglist = getelementptr inbounds nuw i8, ptr %arrayidx15, i64 24
  tail call void @qemu_sglist_destroy(ptr noundef nonnull %sglist) #12
  store i8 0, ptr %used, align 1
  br label %for.inc

for.inc:                                          ; preds = %if.end23, %for.body, %if.end27
  %indvars.iv.next = add nuw nsw i64 %indvars.iv, 1
  %exitcond.not = icmp eq i64 %indvars.iv.next, 32
  br i1 %exitcond.not, label %for.end, label %for.body, !llvm.loop !10

for.end:                                          ; preds = %for.inc
  %13 = load ptr, ptr %dev, align 8
  %port_state = getelementptr %struct.AHCIDevice, ptr %13, i64 %idxprom, i32 3
  store i32 0, ptr %port_state, align 4
  %drive_kind = getelementptr inbounds nuw i8, ptr %ifs8, i64 12
  %14 = load i32, ptr %drive_kind, align 4
  %cmp32 = icmp eq i32 %14, 1
  %. = select i1 %cmp32, i32 -351010559, i32 257
  %.38 = select i1 %cmp32, i8 112, i8 48
  tail call fastcc void @ahci_set_signature(ptr noundef %arrayidx, i32 noundef %.)
  %15 = getelementptr inbounds nuw i8, ptr %ifs8, i64 665
  store i8 %.38, ptr %15, align 1
  %error = getelementptr inbounds nuw i8, ptr %ifs8, i64 649
  store i8 1, ptr %error, align 1
  tail call fastcc void @ahci_init_d2h(ptr noundef %arrayidx)
  br label %return

return:                                           ; preds = %trace_ahci_reset_port.exit, %for.end
  ret void
}